; Function Attrs: nounwind sspstrong uwtable
define dso_local void @tcg_gen_atomic_fetch_umax_i64_chk(ptr noundef %0, ptr noundef %1, ptr noundef %2, i64 noundef %3, i32 noundef %4, i32 noundef %5) local_unnamed_addr #0 {
  %7 = tail call align 8 ptr @llvm.threadlocal.address.p0(ptr align 8 @tcg_ctx)
  %8 = load ptr, ptr %7, align 8
  %9 = getelementptr inbounds nuw i8, ptr %8, i64 60
  %10 = load i32, ptr %9, align 4
  %11 = icmp eq i32 %5, %10
  tail call void @llvm.assume(i1 %11)
  %12 = and i32 %4, 4
  %13 = icmp eq i32 %12, 0
  tail call void @llvm.assume(i1 %13)
  %14 = getelementptr inbounds nuw i8, ptr %8, i64 112
  %15 = load ptr, ptr %14, align 8
  %16 = getelementptr inbounds nuw i8, ptr %15, i64 20
  %17 = load i32, ptr %16, align 4
  %18 = and i32 %17, 32768
  %.not = icmp eq i32 %18, 0
  br i1 %.not, label %20, label %19

19:                                               ; preds = %6
  tail call fastcc void @do_atomic_op_i64(ptr noundef %0, ptr noundef %1, ptr noundef %2, i64 noundef %3, i32 noundef %4, ptr noundef nonnull @table_fetch_umax)
  br label %53

20:                                               ; preds = %6
  %21 = tail call ptr @tcg_temp_ebb_new_i64() #6
  %22 = tail call ptr @tcg_temp_ebb_new_i64() #6
  %23 = and i32 %4, 224
  %trunc.i.i.i = trunc nuw i32 %23 to i8
  switch i8 %trunc.i.i.i, label %26 [
    i8 0, label %memop_alignment_bits.exit.i.i
    i8 -32, label %24
  ]

24:                                               ; preds = %20
  %25 = and i32 %4, 3
  br label %memop_alignment_bits.exit.i.i

26:                                               ; preds = %20
  %27 = lshr exact i32 %23, 5
  br label %memop_alignment_bits.exit.i.i

memop_alignment_bits.exit.i.i:                    ; preds = %26, %24, %20
  %.0.i.i.i = phi i32 [ %25, %24 ], [ %27, %26 ], [ 0, %20 ]
  %28 = load i8, ptr @tcg_use_softmmu, align 1, !range !4, !noundef !5
  %29 = trunc nuw i8 %28 to i1
  br i1 %29, label %30, label %check_max_alignment.exit.i.i

30:                                               ; preds = %memop_alignment_bits.exit.i.i
  %31 = add nuw nsw i32 %.0.i.i.i, 5
  %32 = load ptr, ptr %7, align 8
  %33 = getelementptr inbounds nuw i8, ptr %32, i64 68
  %34 = load i8, ptr %33, align 4
  %35 = zext i8 %34 to i32
  %36 = icmp samesign ule i32 %31, %35
  tail call void @llvm.assume(i1 %36)
  br label %check_max_alignment.exit.i.i

check_max_alignment.exit.i.i:                     ; preds = %30, %memop_alignment_bits.exit.i.i
  %37 = and i32 %4, 3
  %38 = icmp eq i32 %.0.i.i.i, %37
  %39 = or i32 %4, 224
  %spec.select.i.i = select i1 %38, i32 %39, i32 %4
  %40 = and i32 %spec.select.i.i, 3
  switch i32 %40, label %default.unreachable [
    i32 0, label %41
    i32 1, label %do_nonatomic_op_i64.exit
    i32 2, label %do_nonatomic_op_i64.exit
    i32 3, label %43
  ]

41:                                               ; preds = %check_max_alignment.exit.i.i
  %42 = and i32 %spec.select.i.i, -21
  br label %do_nonatomic_op_i64.exit

43:                                               ; preds = %check_max_alignment.exit.i.i
  %44 = and i32 %spec.select.i.i, -13
  br label %do_nonatomic_op_i64.exit

default.unreachable:                              ; preds = %check_max_alignment.exit.i.i
  unreachable

do_nonatomic_op_i64.exit:                         ; preds = %check_max_alignment.exit.i.i, %check_max_alignment.exit.i.i, %41, %43
  %.1.i.i = phi i32 [ %44, %43 ], [ %spec.select.i.i, %check_max_alignment.exit.i.i ], [ %42, %41 ], [ %spec.select.i.i, %check_max_alignment.exit.i.i ]
  %45 = load ptr, ptr %7, align 8
  %46 = getelementptr inbounds nuw i8, ptr %45, i64 112
  %47 = load ptr, ptr %46, align 8
  %48 = getelementptr inbounds nuw i8, ptr %47, i64 20
  %49 = load i32, ptr %48, align 4
  %50 = and i32 %49, 32768
  %.not.i.i = icmp eq i32 %50, 0
  %51 = and i32 %.1.i.i, -1793
  %52 = or disjoint i32 %51, 1280
  %.3.i.i = select i1 %.not.i.i, i32 %52, i32 %.1.i.i
  tail call fastcc void @tcg_gen_qemu_ld_i64_int(ptr noundef %21, ptr noundef %1, i64 noundef %3, i32 noundef %.3.i.i)
  tail call void @tcg_gen_ext_i64(ptr noundef %22, ptr noundef %2, i32 noundef %.3.i.i)
  tail call void @tcg_gen_umax_i64(ptr noundef %22, ptr noundef %21, ptr noundef %22) #6
  tail call fastcc void @tcg_gen_qemu_st_i64_int(ptr noundef %22, ptr noundef %1, i64 noundef %3, i32 noundef %.3.i.i)
  tail call void @tcg_gen_ext_i64(ptr noundef %0, ptr noundef %21, i32 noundef %.3.i.i)
  tail call void @tcg_temp_free_i64(ptr noundef %21) #6
  tail call void @tcg_temp_free_i64(ptr noundef %22) #6
  br label %53

53:                                               ; preds = %do_nonatomic_op_i64.exit, %19
  ret void
}